target datalayout = "e-m:e-p270:32:32-p271:32:32-p272:64:64-i64:64-i128:128-f80:128-n8:16:32:64-S128"
target triple = "x86_64-pc-linux-gnu"

@.str.1 = private unnamed_addr constant [31 x i8] c"../openssl/crypto/ts/ts_conf.c\00", align 1
@.str.26 = private unnamed_addr constant [7 x i8] c"%s::%s\00", align 1
@__func__.ts_CONF_invalid = private unnamed_addr constant [16 x i8] c"ts_CONF_invalid\00", align 1
@.str.27 = private unnamed_addr constant [4 x i8] c"yes\00", align 1
@.str.28 = private unnamed_addr constant [3 x i8] c"no\00", align 1

; Function Attrs: nounwind uwtable
define internal void @ts_CONF_invalid(ptr noundef %0, ptr noundef %1) #0 {
  %3 = alloca ptr, align 8
  %4 = alloca ptr, align 8
  store ptr %0, ptr %3, align 8, !tbaa !3
  store ptr %1, ptr %4, align 8, !tbaa !3
  call void @ERR_new()
  call void @ERR_set_debug(ptr noundef @.str.1, i32 noundef 132, ptr noundef @__func__.ts_CONF_invalid)
  %5 = load ptr, ptr %3, align 8, !tbaa !3
  %6 = load ptr, ptr %4, align 8, !tbaa !3
  call void (i32, i32, ptr, ...) @ERR_set_error(i32 noundef 47, i32 noundef 135, ptr noundef @.str.26, ptr noundef %5, ptr noundef %6)
  ret void
}

; Function Attrs: nounwind uwtable
define internal i32 @ts_CONF_add_flag(ptr noundef %0, ptr noundef %1, ptr noundef %2, i32 noundef %3, ptr noundef %4) #0 {
  %6 = alloca i32, align 4
  %7 = alloca ptr, align 8
  %8 = alloca ptr, align 8
  %9 = alloca ptr, align 8
  %10 = alloca i32, align 4
  %11 = alloca ptr, align 8
  %12 = alloca ptr, align 8
  %13 = alloca i32, align 4
  store ptr %0, ptr %7, align 8, !tbaa !31
  store ptr %1, ptr %8, align 8, !tbaa !3
  store ptr %2, ptr %9, align 8, !tbaa !3
  store i32 %3, ptr %10, align 4, !tbaa !16
  store ptr %4, ptr %11, align 8, !tbaa !33
  call void @llvm.lifetime.start.p0(i64 8, ptr %12) #7
  %14 = load ptr, ptr %7, align 8, !tbaa !31
  %15 = load ptr, ptr %8, align 8, !tbaa !3
  %16 = load ptr, ptr %9, align 8, !tbaa !3
  %17 = call ptr @NCONF_get_string(ptr noundef %14, ptr noundef %15, ptr noundef %16)
  store ptr %17, ptr %12, align 8, !tbaa !3
  %18 = load ptr, ptr %12, align 8, !tbaa !3
  %19 = icmp ne ptr %18, null
  br i1 %19, label %20, label %36

20:                                               ; preds = %5
  %21 = load ptr, ptr %12, align 8, !tbaa !3
  %22 = call i32 @strcmp(ptr noundef %21, ptr noundef @.str.27) #8
  %23 = icmp eq i32 %22, 0
  br i1 %23, label %24, label %27

24:                                               ; preds = %20
  %25 = load ptr, ptr %11, align 8, !tbaa !33
  %26 = load i32, ptr %10, align 4, !tbaa !16
  call void @TS_RESP_CTX_add_flags(ptr noundef %25, i32 noundef %26)
  br label %35

27:                                               ; preds = %20
  %28 = load ptr, ptr %12, align 8, !tbaa !3
  %29 = call i32 @strcmp(ptr noundef %28, ptr noundef @.str.28) #8
  %30 = icmp ne i32 %29, 0
  br i1 %30, label %31, label %34

31:                                               ; preds = %27
  %32 = load ptr, ptr %8, align 8, !tbaa !3
  %33 = load ptr, ptr %9, align 8, !tbaa !3
  call void @ts_CONF_invalid(ptr noundef %32, ptr noundef %33)
  store i32 0, ptr %6, align 4
  store i32 1, ptr %13, align 4
  br label %37

34:                                               ; preds = %27
  br label %35

35:                                               ; preds = %34, %24
  br label %36

36:                                               ; preds = %35, %5
  store i32 1, ptr %6, align 4
  store i32 1, ptr %13, align 4
  br label %37

37:                                               ; preds = %36, %31
  call void @llvm.lifetime.end.p0(i64 8, ptr %12) #7
  %38 = load i32, ptr %6, align 4
  ret i32 %38
}