; Function Attrs: nounwind uwtable
define internal fastcc range(i32 0, 2) i32 @ts_CONF_add_flag(ptr noundef %0, ptr noundef %1, ptr noundef %2, i32 noundef range(i32 1, 5) %3, ptr noundef %4) unnamed_addr #0 {
  %6 = tail call ptr @NCONF_get_string(ptr noundef %0, ptr noundef %1, ptr noundef %2) #4
  %.not = icmp eq ptr %6, null
  br i1 %.not, label %17, label %7

7:                                                ; preds = %5
  %8 = tail call i32 @strcmp(ptr noundef nonnull dereferenceable(1) %6, ptr noundef nonnull dereferenceable(4) @.str.27) #5
  %9 = icmp eq i32 %8, 0
  br i1 %9, label %10, label %sub_0

10:                                               ; preds = %7
  tail call void @TS_RESP_CTX_add_flags(ptr noundef %4, i32 noundef %3) #4
  br label %17

sub_0:                                            ; preds = %7
  %11 = load i8, ptr %6, align 1
  %.not12 = icmp eq i8 %11, 110
  br i1 %.not12, label %sub_1, label %.tail.thread

sub_1:                                            ; preds = %sub_0
  %12 = getelementptr inbounds nuw i8, ptr %6, i64 1
  %13 = load i8, ptr %12, align 1
  %.not13 = icmp eq i8 %13, 111
  br i1 %.not13, label %.tail, label %.tail.thread

.tail:                                            ; preds = %sub_1
  %14 = getelementptr inbounds nuw i8, ptr %6, i64 2
  %15 = load i8, ptr %14, align 1
  %16 = icmp eq i8 %15, 0
  br i1 %16, label %17, label %.tail.thread

.tail.thread:                                     ; preds = %sub_1, %sub_0, %.tail
  tail call void @ERR_new() #4
  tail call void @ERR_set_debug(ptr noundef nonnull @.str.1, i32 noundef 132, ptr noundef nonnull @__func__.ts_CONF_invalid) #4
  tail call void (i32, i32, ptr, ...) @ERR_set_error(i32 noundef 47, i32 noundef 135, ptr noundef nonnull @.str.26, ptr noundef %1, ptr noundef %2) #4
  br label %17

17:                                               ; preds = %5, %.tail, %10, %.tail.thread
  %.0 = phi i32 [ 0, %.tail.thread ], [ 1, %10 ], [ 1, %.tail ], [ 1, %5 ]
  ret i32 %.0
}